target datalayout = "e-m:e-p270:32:32-p271:32:32-p272:64:64-i64:64-i128:128-f80:128-n8:16:32:64-S128"
target triple = "x86_64-pc-linux-gnu"

%struct.tMPI_Thread_key_t = type { %struct.tMPI_Atomic, ptr }
%struct.tMPI_Atomic = type { i32, [60 x i8] }
%struct.tmpi_req_ = type { i32, ptr, ptr, ptr, i32, i32, i64, i32, ptr, ptr }
%struct.tmpi_comm_ = type { %struct.tmpi_group_, %struct.tMPI_Barrier_t, ptr, ptr, i32, ptr, ptr, ptr, ptr, %struct.tMPI_Thread_mutex_t, %struct.tMPI_Thread_cond_t, %struct.tMPI_Thread_cond_t, ptr, ptr, ptr, ptr, ptr, ptr, %struct.tMPI_Atomic }
%struct.tmpi_group_ = type { i32, ptr }
%struct.tMPI_Barrier_t = type { %struct.tMPI_Atomic, i32, %struct.tMPI_Atomic }
%struct.tMPI_Thread_mutex_t = type { %struct.tMPI_Atomic, ptr }
%struct.tMPI_Thread_cond_t = type { %struct.tMPI_Atomic, ptr }

@id_key = external global %struct.tMPI_Thread_key_t, align 8
@TMPI_COMM_WORLD = external global ptr, align 8

; Function Attrs: mustprogress uwtable
define noundef i32 @_Z9tMPI_RecvPviP14tmpi_datatype_iiP10tmpi_comm_P12tmpi_status_(ptr noundef %0, i32 noundef %1, ptr noundef %2, i32 noundef %3, i32 noundef %4, ptr noundef %5, ptr noundef %6) #0 {
  %8 = alloca i32, align 4
  %9 = alloca ptr, align 8
  %10 = alloca i32, align 4
  %11 = alloca ptr, align 8
  %12 = alloca i32, align 4
  %13 = alloca i32, align 4
  %14 = alloca ptr, align 8
  %15 = alloca ptr, align 8
  %16 = alloca ptr, align 8
  %17 = alloca ptr, align 8
  %18 = alloca ptr, align 8
  %19 = alloca %struct.tMPI_Thread_key_t, align 8
  %20 = alloca %struct.tmpi_req_, align 8
  store ptr %0, ptr %9, align 8
  store i32 %1, ptr %10, align 4
  store ptr %2, ptr %11, align 8
  store i32 %3, ptr %12, align 4
  store i32 %4, ptr %13, align 4
  store ptr %5, ptr %14, align 8
  store ptr %6, ptr %15, align 8
  store ptr null, ptr %17, align 8
  call void @llvm.memcpy.p0.p0.i64(ptr align 8 %19, ptr align 8 @id_key, i64 72, i1 false)
  %21 = call noundef ptr @_Z23tMPI_Thread_getspecific17tMPI_Thread_key_t(ptr noundef byval(%struct.tMPI_Thread_key_t) align 8 %19)
  store ptr %21, ptr %18, align 8
  %22 = load ptr, ptr %14, align 8
  %23 = icmp ne ptr %22, null
  br i1 %23, label %27, label %24

24:                                               ; preds = %7
  %25 = load ptr, ptr @TMPI_COMM_WORLD, align 8
  %26 = call noundef i32 @_Z10tMPI_ErrorP10tmpi_comm_i(ptr noundef %25, i32 noundef 6)
  store i32 %26, ptr %8, align 4
  br label %63

27:                                               ; preds = %7
  %28 = load i32, ptr %12, align 4
  %29 = icmp ne i32 %28, -1
  br i1 %29, label %30, label %45

30:                                               ; preds = %27
  %31 = load ptr, ptr %14, align 8
  %32 = getelementptr inbounds %struct.tmpi_comm_, ptr %31, i32 0, i32 0
  %33 = getelementptr inbounds %struct.tmpi_group_, ptr %32, i32 0, i32 1
  %34 = load ptr, ptr %33, align 8
  %35 = load i32, ptr %12, align 4
  %36 = sext i32 %35 to i64
  %37 = getelementptr inbounds ptr, ptr %34, i64 %36
  %38 = load ptr, ptr %37, align 8
  store ptr %38, ptr %17, align 8
  %39 = load ptr, ptr %17, align 8
  %40 = icmp ne ptr %39, null
  br i1 %40, label %44, label %41

41:                                               ; preds = %30
  %42 = load ptr, ptr %14, align 8
  %43 = call noundef i32 @_Z10tMPI_ErrorP10tmpi_comm_i(ptr noundef %42, i32 noundef 16)
  store i32 %43, ptr %8, align 4
  br label %63

44:                                               ; preds = %30
  br label %45

45:                                               ; preds = %44, %27
  %46 = load ptr, ptr %18, align 8
  %47 = load ptr, ptr %14, align 8
  %48 = load ptr, ptr %17, align 8
  %49 = load ptr, ptr %9, align 8
  %50 = load i32, ptr %10, align 4
  %51 = load ptr, ptr %11, align 8
  %52 = load i32, ptr %13, align 4
  %53 = call noundef ptr @_Z20tMPI_Post_match_recvP11tmpi_threadP10tmpi_comm_S0_PviP14tmpi_datatype_ii(ptr noundef %46, ptr noundef %47, ptr noundef %48, ptr noundef %49, i32 noundef %50, ptr noundef %51, i32 noundef %52, i32 noundef 0)
  store ptr %53, ptr %16, align 8
  %54 = load ptr, ptr %16, align 8
  %55 = icmp eq ptr %54, null
  br i1 %55, label %56, label %57

56:                                               ; preds = %45
  store i32 20, ptr %8, align 4
  br label %63

57:                                               ; preds = %45
  %58 = load ptr, ptr %16, align 8
  call void @_Z13tMPI_Req_initP9tmpi_req_P8envelope(ptr noundef %20, ptr noundef %58)
  %59 = load ptr, ptr %18, align 8
  call void @_Z16tMPI_Wait_singleP11tmpi_threadP9tmpi_req_(ptr noundef %59, ptr noundef %20)
  %60 = load ptr, ptr %15, align 8
  call void @_Z15tMPI_Set_statusP9tmpi_req_P12tmpi_status_(ptr noundef %20, ptr noundef %60)
  %61 = getelementptr inbounds %struct.tmpi_req_, ptr %20, i32 0, i32 5
  %62 = load i32, ptr %61, align 4
  store i32 %62, ptr %8, align 4
  br label %63

63:                                               ; preds = %57, %56, %41, %24
  %64 = load i32, ptr %8, align 4
  ret i32 %64
}