; Function Attrs: mustprogress uwtable
define noundef i32 @_Z9tMPI_RecvPviP14tmpi_datatype_iiP10tmpi_comm_P12tmpi_status_(ptr noundef %0, i32 noundef %1, ptr noundef %2, i32 noundef %3, i32 noundef %4, ptr noundef %5, ptr noundef %6) local_unnamed_addr #0 {
  %8 = alloca %struct.tmpi_req_, align 8
  %9 = tail call noundef ptr @_Z23tMPI_Thread_getspecific17tMPI_Thread_key_t(ptr noundef nonnull byval(%struct.tMPI_Thread_key_t) align 8 @id_key)
  %.not = icmp eq ptr %5, null
  br i1 %.not, label %10, label %13

10:                                               ; preds = %7
  %11 = load ptr, ptr @TMPI_COMM_WORLD, align 8
  %12 = tail call noundef i32 @_Z10tMPI_ErrorP10tmpi_comm_i(ptr noundef %11, i32 noundef 6)
  br label %28

13:                                               ; preds = %7
  %.not22 = icmp eq i32 %3, -1
  br i1 %.not22, label %22, label %14

14:                                               ; preds = %13
  %15 = getelementptr inbounds i8, ptr %5, i64 8
  %16 = load ptr, ptr %15, align 8
  %17 = sext i32 %3 to i64
  %18 = getelementptr inbounds ptr, ptr %16, i64 %17
  %19 = load ptr, ptr %18, align 8
  %.not23 = icmp eq ptr %19, null
  br i1 %.not23, label %20, label %22

20:                                               ; preds = %14
  %21 = tail call noundef i32 @_Z10tMPI_ErrorP10tmpi_comm_i(ptr noundef nonnull %5, i32 noundef 16)
  br label %28

22:                                               ; preds = %14, %13
  %.017 = phi ptr [ %19, %14 ], [ null, %13 ]
  %23 = tail call noundef ptr @_Z20tMPI_Post_match_recvP11tmpi_threadP10tmpi_comm_S0_PviP14tmpi_datatype_ii(ptr noundef %9, ptr noundef nonnull %5, ptr noundef %.017, ptr noundef %0, i32 noundef %1, ptr noundef %2, i32 noundef %4, i32 noundef 0)
  %24 = icmp eq ptr %23, null
  br i1 %24, label %28, label %25

25:                                               ; preds = %22
  call void @_Z13tMPI_Req_initP9tmpi_req_P8envelope(ptr noundef nonnull %8, ptr noundef nonnull %23)
  call void @_Z16tMPI_Wait_singleP11tmpi_threadP9tmpi_req_(ptr noundef %9, ptr noundef nonnull %8)
  call void @_Z15tMPI_Set_statusP9tmpi_req_P12tmpi_status_(ptr noundef nonnull %8, ptr noundef %6)
  %26 = getelementptr inbounds i8, ptr %8, i64 36
  %27 = load i32, ptr %26, align 4
  br label %28

28:                                               ; preds = %22, %25, %20, %10
  %.0 = phi i32 [ %27, %25 ], [ %21, %20 ], [ %12, %10 ], [ 20, %22 ]
  ret i32 %.0
}